; Function Attrs: null_pointer_is_valid sspstrong uwtable
define noalias noundef ptr @wscbor_error_new(ptr noundef %0, ptr noundef %1, ptr noundef %2, ...) local_unnamed_addr #0 {
  %4 = alloca [1 x %struct.__va_list_tag], align 16
  %5 = tail call noalias dereferenceable_or_null(16) ptr @wmem_alloc0(ptr noundef %0, i64 noundef 16) #8
  store ptr %1, ptr %5, align 8
  %.not = icmp eq ptr %2, null
  br i1 %.not, label %10, label %6

6:                                                ; preds = %3
  %7 = tail call noalias ptr @wmem_strbuf_new(ptr noundef %0, ptr noundef nonnull @.str)
  call void @llvm.lifetime.start.p0(i64 24, ptr nonnull %4) #9
  call void @llvm.va_start.p0(ptr nonnull %4)
  call void @wmem_strbuf_append_vprintf(ptr noundef %7, ptr noundef nonnull %2, ptr noundef nonnull %4)
  call void @llvm.va_end.p0(ptr nonnull %4)
  %8 = call ptr @wmem_strbuf_finalize(ptr noundef %7)
  %9 = getelementptr inbounds nuw i8, ptr %5, i64 8
  store ptr %8, ptr %9, align 8
  call void @llvm.lifetime.end.p0(i64 24, ptr nonnull %4) #9
  br label %10

10:                                               ; preds = %6, %3
  ret ptr %5
}